target datalayout = "e-m:e-p270:32:32-p271:32:32-p272:64:64-i64:64-i128:128-f80:128-n8:16:32:64-S128"
target triple = "x86_64-pc-linux-gnu"

%struct.darktable_t = type { %struct.dt_codepath_t, i32, i32, ptr, ptr, ptr, ptr, ptr, ptr, ptr, ptr, ptr, ptr, ptr, ptr, ptr, ptr, ptr, ptr, ptr, ptr, ptr, ptr, ptr, ptr, ptr, ptr, ptr, ptr, ptr, [64 x %struct.dt_pthread_mutex_t], %struct.dt_pthread_mutex_t, %struct.dt_pthread_mutex_t, %struct.dt_pthread_mutex_t, %struct.dt_pthread_mutex_t, %struct.dt_pthread_mutex_t, ptr, ptr, ptr, ptr, ptr, ptr, ptr, ptr, ptr, ptr, ptr, ptr, ptr, %struct.dt_lua_state_t, ptr, double, ptr, i32, [47 x i32], i32, i32, ptr, ptr, %struct.dt_sys_resources_t, %struct.dt_backthumb_t, %struct.dt_gimp_t }
%struct.dt_codepath_t = type { i8, [3 x i8] }
%struct.dt_pthread_mutex_t = type { %union.pthread_mutex_t }
%union.pthread_mutex_t = type { %struct.__pthread_mutex_s }
%struct.__pthread_mutex_s = type { i32, i32, i32, i32, i32, i16, i16, %struct.__pthread_internal_list }
%struct.__pthread_internal_list = type { ptr, ptr }
%struct.dt_lua_state_t = type { i32 }
%struct.dt_sys_resources_t = type { i64, i64, ptr, ptr, i32 }
%struct.dt_backthumb_t = type { double, double, i32, i32, i32, i32 }
%struct.dt_gimp_t = type { i32, ptr, ptr, i32, i32 }
%struct.dt_lib_module_t = type { %struct.dt_action_t, ptr, ptr, ptr, ptr, ptr, ptr, ptr, ptr, ptr, ptr, ptr, ptr, ptr, ptr, ptr, ptr, ptr, ptr, ptr, ptr, ptr, ptr, ptr, ptr, ptr, ptr, ptr, ptr, ptr, ptr, [128 x i8], ptr, ptr, i32, ptr, ptr, ptr, i32 }
%struct.dt_action_t = type { i32, ptr, ptr, ptr, ptr, ptr }
%struct.dt_view_t = type { %struct.dt_action_t, ptr, ptr, ptr, ptr, ptr, ptr, ptr, ptr, ptr, ptr, ptr, ptr, ptr, ptr, ptr, ptr, ptr, ptr, ptr, ptr, ptr, [64 x i8], ptr, ptr, i32, i32, float, float, float, float, float, float, float, float }

@darktable = external global %struct.darktable_t, align 8
@.str = private unnamed_addr constant [35 x i8] c"module %s doesn't have views flags\00", align 1
@.str.1 = private unnamed_addr constant [9 x i8] c"_visible\00", align 1

; Function Attrs: nounwind uwtable
define i32 @dt_lib_is_visible_in_view(ptr noundef %0, ptr noundef %1) #0 {
  %3 = alloca i32, align 4
  %4 = alloca ptr, align 8
  %5 = alloca ptr, align 8
  %6 = alloca i32, align 4
  %7 = alloca ptr, align 8
  store ptr %0, ptr %4, align 8, !tbaa !6
  store ptr %1, ptr %5, align 8, !tbaa !11
  %8 = load ptr, ptr %4, align 8, !tbaa !6
  %9 = getelementptr inbounds nuw %struct.dt_lib_module_t, ptr %8, i32 0, i32 3
  %10 = load ptr, ptr %9, align 8, !tbaa !13
  %11 = icmp ne ptr %10, null
  br i1 %11, label %26, label %12

12:                                               ; preds = %2
  br label %13

13:                                               ; preds = %12
  %14 = load i32, ptr getelementptr inbounds nuw (%struct.darktable_t, ptr @darktable, i32 0, i32 2), align 8, !tbaa !21
  %15 = xor i32 %14, -1
  %16 = and i32 0, %15
  %17 = icmp ne i32 %16, 0
  br i1 %17, label %24, label %18

18:                                               ; preds = %13
  %19 = load ptr, ptr %4, align 8, !tbaa !6
  %20 = getelementptr inbounds nuw %struct.dt_lib_module_t, ptr %19, i32 0, i32 2
  %21 = load ptr, ptr %20, align 8, !tbaa !58
  %22 = load ptr, ptr %4, align 8, !tbaa !6
  %23 = call ptr %21(ptr noundef %22)
  call void (ptr, ...) @dt_print_ext(ptr noundef @.str, ptr noundef %23)
  br label %24

24:                                               ; preds = %18, %13
  br label %25

25:                                               ; preds = %24
  store i32 0, ptr %3, align 4
  br label %53

26:                                               ; preds = %2
  call void @llvm.lifetime.start.p0(i64 4, ptr %6) #12
  %27 = load ptr, ptr %4, align 8, !tbaa !6
  %28 = getelementptr inbounds nuw %struct.dt_lib_module_t, ptr %27, i32 0, i32 3
  %29 = load ptr, ptr %28, align 8, !tbaa !13
  %30 = load ptr, ptr %4, align 8, !tbaa !6
  %31 = call i32 %29(ptr noundef %30)
  %32 = load ptr, ptr %5, align 8, !tbaa !11
  %33 = getelementptr inbounds nuw %struct.dt_view_t, ptr %32, i32 0, i32 3
  %34 = load ptr, ptr %33, align 8, !tbaa !59
  %35 = load ptr, ptr %5, align 8, !tbaa !11
  %36 = call i32 %34(ptr noundef %35)
  %37 = and i32 %31, %36
  store i32 %37, ptr %6, align 4, !tbaa !62
  call void @llvm.lifetime.start.p0(i64 8, ptr %7) #12
  %38 = load ptr, ptr %4, align 8, !tbaa !6
  %39 = load ptr, ptr %5, align 8, !tbaa !11
  %40 = call ptr @_get_lib_view_path(ptr noundef %38, ptr noundef %39, ptr noundef @.str.1)
  store ptr %40, ptr %7, align 8, !tbaa !63
  %41 = load ptr, ptr %7, align 8, !tbaa !63
  %42 = icmp ne ptr %41, null
  br i1 %42, label %43, label %50

43:                                               ; preds = %26
  %44 = load ptr, ptr %7, align 8, !tbaa !63
  %45 = call i32 @dt_conf_key_exists(ptr noundef %44)
  %46 = icmp ne i32 %45, 0
  br i1 %46, label %47, label %50

47:                                               ; preds = %43
  %48 = load ptr, ptr %7, align 8, !tbaa !63
  %49 = call i32 @dt_conf_get_bool(ptr noundef %48)
  store i32 %49, ptr %6, align 4, !tbaa !62
  br label %50

50:                                               ; preds = %47, %43, %26
  %51 = load ptr, ptr %7, align 8, !tbaa !63
  call void @g_free(ptr noundef %51)
  %52 = load i32, ptr %6, align 4, !tbaa !62
  store i32 %52, ptr %3, align 4
  call void @llvm.lifetime.end.p0(i64 8, ptr %7) #12
  call void @llvm.lifetime.end.p0(i64 4, ptr %6) #12
  br label %53

53:                                               ; preds = %50, %25
  %54 = load i32, ptr %3, align 4
  ret i32 %54
}