; Function Attrs: nounwind uwtable
define i32 @dt_lib_is_visible_in_view(ptr noundef %0, ptr noundef %1) local_unnamed_addr #0 {
  %3 = getelementptr inbounds nuw i8, ptr %0, i64 64
  %4 = load ptr, ptr %3, align 8, !tbaa !6
  %.not = icmp eq ptr %4, null
  br i1 %.not, label %5, label %9

5:                                                ; preds = %2
  %6 = getelementptr inbounds nuw i8, ptr %0, i64 56
  %7 = load ptr, ptr %6, align 8, !tbaa !17
  %8 = tail call ptr %7(ptr noundef nonnull %0) #19
  tail call void (ptr, ...) @dt_print_ext(ptr noundef nonnull @.str, ptr noundef %8) #19
  br label %21

9:                                                ; preds = %2
  %10 = tail call i32 %4(ptr noundef nonnull %0) #19
  %11 = getelementptr inbounds nuw i8, ptr %1, i64 64
  %12 = load ptr, ptr %11, align 8, !tbaa !18
  %13 = tail call i32 %12(ptr noundef %1) #19
  %14 = and i32 %13, %10
  %15 = tail call fastcc ptr @_get_lib_view_path(ptr noundef nonnull %0, ptr noundef %1, ptr noundef nonnull @.str.1)
  %.not17 = icmp eq ptr %15, null
  br i1 %.not17, label %20, label %16

16:                                               ; preds = %9
  %17 = tail call i32 @dt_conf_key_exists(ptr noundef nonnull %15) #19
  %.not18 = icmp eq i32 %17, 0
  br i1 %.not18, label %20, label %18

18:                                               ; preds = %16
  %19 = tail call i32 @dt_conf_get_bool(ptr noundef nonnull %15) #19
  br label %20

20:                                               ; preds = %18, %16, %9
  %.014 = phi i32 [ %19, %18 ], [ %14, %16 ], [ %14, %9 ]
  tail call void @g_free(ptr noundef %15) #19
  br label %21

21:                                               ; preds = %20, %5
  %.0 = phi i32 [ %.014, %20 ], [ 0, %5 ]
  ret i32 %.0
}